; Function Attrs: nounwind uwtable
define ptr @l_Lake_Toml_litFn(ptr noundef %0, ptr noundef %1, ptr noundef %2, ptr noundef %3, ptr noundef %4) local_unnamed_addr #1 {
  %6 = getelementptr inbounds nuw i8, ptr %4, i64 24
  %7 = load ptr, ptr %6, align 8, !tbaa !10
  %8 = ptrtoint ptr %7 to i64
  %9 = and i64 %8, 1
  %.not = icmp eq i64 %9, 0
  br i1 %.not, label %10, label %lean_inc.exit26

10:                                               ; preds = %5
  %.val.i = load i32, ptr %7, align 4, !tbaa !4
  %11 = icmp sgt i32 %.val.i, 0
  br i1 %11, label %12, label %14, !prof !9

12:                                               ; preds = %10
  %13 = add nuw i32 %.val.i, 1
  store i32 %13, ptr %7, align 4, !tbaa !4
  br label %lean_inc.exit26

14:                                               ; preds = %10
  %.not.i33 = icmp eq i32 %.val.i, 0
  br i1 %.not.i33, label %lean_inc.exit26, label %15

15:                                               ; preds = %14
  tail call void @lean_inc_ref_cold(ptr noundef nonnull %7) #4
  br label %lean_inc.exit26

lean_inc.exit26:                                  ; preds = %15, %14, %12, %5
  %16 = ptrtoint ptr %3 to i64
  %17 = and i64 %16, 1
  %.not40 = icmp eq i64 %17, 0
  br i1 %.not40, label %18, label %lean_inc.exit25

18:                                               ; preds = %lean_inc.exit26
  %.val.i34 = load i32, ptr %3, align 4, !tbaa !4
  %19 = icmp sgt i32 %.val.i34, 0
  br i1 %19, label %20, label %22, !prof !9

20:                                               ; preds = %18
  %21 = add nuw i32 %.val.i34, 1
  store i32 %21, ptr %3, align 4, !tbaa !4
  br label %lean_inc.exit25

22:                                               ; preds = %18
  %.not.i35 = icmp eq i32 %.val.i34, 0
  br i1 %.not.i35, label %lean_inc.exit25, label %23

23:                                               ; preds = %22
  tail call void @lean_inc_ref_cold(ptr noundef nonnull %3) #4
  br label %lean_inc.exit25

lean_inc.exit25:                                  ; preds = %23, %22, %20, %lean_inc.exit26
  %24 = tail call ptr @lean_apply_2(ptr noundef %1, ptr noundef %3, ptr noundef nonnull %4) #4
  %25 = getelementptr inbounds nuw i8, ptr %24, i64 40
  %26 = load ptr, ptr %25, align 8, !tbaa !10
  %27 = ptrtoint ptr %26 to i64
  %28 = and i64 %27, 1
  %.not41 = icmp eq i64 %28, 0
  br i1 %.not41, label %29, label %lean_inc.exit

29:                                               ; preds = %lean_inc.exit25
  %.val.i37 = load i32, ptr %26, align 4, !tbaa !4
  %30 = icmp sgt i32 %.val.i37, 0
  br i1 %30, label %31, label %33, !prof !9

31:                                               ; preds = %29
  %32 = add nuw i32 %.val.i37, 1
  store i32 %32, ptr %26, align 4, !tbaa !4
  br label %lean_inc.exit

33:                                               ; preds = %29
  %.not.i38 = icmp eq i32 %.val.i37, 0
  br i1 %.not.i38, label %lean_inc.exit, label %34

34:                                               ; preds = %33
  tail call void @lean_inc_ref_cold(ptr noundef nonnull %26) #4
  br label %lean_inc.exit

lean_inc.exit:                                    ; preds = %34, %33, %31, %lean_inc.exit25
  %35 = tail call zeroext i8 @l_Option_beqOption____x40_Init_Data_Option_Basic___hyg_160____at_Lean_Parser_ParserState_hasError___spec__1(ptr noundef %26, ptr noundef nonnull inttoptr (i64 1 to ptr)) #4
  %36 = icmp eq i8 %35, 0
  br i1 %36, label %37, label %70

37:                                               ; preds = %lean_inc.exit
  br i1 %.not, label %38, label %lean_dec.exit24

38:                                               ; preds = %37
  %39 = load i32, ptr %7, align 4, !tbaa !4
  %40 = icmp sgt i32 %39, 1
  br i1 %40, label %41, label %43, !prof !9

41:                                               ; preds = %38
  %42 = add nsw i32 %39, -1
  store i32 %42, ptr %7, align 4, !tbaa !4
  br label %lean_dec.exit24

43:                                               ; preds = %38
  %.not.i = icmp eq i32 %39, 0
  br i1 %.not.i, label %lean_dec.exit24, label %44

44:                                               ; preds = %43
  tail call void @lean_dec_ref_cold(ptr noundef nonnull %7) #4
  br label %lean_dec.exit24

lean_dec.exit24:                                  ; preds = %44, %43, %41, %37
  br i1 %.not40, label %45, label %lean_dec.exit23

45:                                               ; preds = %lean_dec.exit24
  %46 = load i32, ptr %3, align 4, !tbaa !4
  %47 = icmp sgt i32 %46, 1
  br i1 %47, label %48, label %50, !prof !9

48:                                               ; preds = %45
  %49 = add nsw i32 %46, -1
  store i32 %49, ptr %3, align 4, !tbaa !4
  br label %lean_dec.exit23

50:                                               ; preds = %45
  %.not.i27 = icmp eq i32 %46, 0
  br i1 %.not.i27, label %lean_dec.exit23, label %51

51:                                               ; preds = %50
  tail call void @lean_dec_ref_cold(ptr noundef nonnull %3) #4
  br label %lean_dec.exit23

lean_dec.exit23:                                  ; preds = %51, %50, %48, %lean_dec.exit24
  %52 = ptrtoint ptr %2 to i64
  %53 = and i64 %52, 1
  %.not42 = icmp eq i64 %53, 0
  br i1 %.not42, label %54, label %lean_dec.exit22

54:                                               ; preds = %lean_dec.exit23
  %55 = load i32, ptr %2, align 4, !tbaa !4
  %56 = icmp sgt i32 %55, 1
  br i1 %56, label %57, label %59, !prof !9

57:                                               ; preds = %54
  %58 = add nsw i32 %55, -1
  store i32 %58, ptr %2, align 4, !tbaa !4
  br label %lean_dec.exit22

59:                                               ; preds = %54
  %.not.i29 = icmp eq i32 %55, 0
  br i1 %.not.i29, label %lean_dec.exit22, label %60

60:                                               ; preds = %59
  tail call void @lean_dec_ref_cold(ptr noundef nonnull %2) #4
  br label %lean_dec.exit22

lean_dec.exit22:                                  ; preds = %60, %59, %57, %lean_dec.exit23
  %61 = ptrtoint ptr %0 to i64
  %62 = and i64 %61, 1
  %.not43 = icmp eq i64 %62, 0
  br i1 %.not43, label %63, label %lean_dec.exit

63:                                               ; preds = %lean_dec.exit22
  %64 = load i32, ptr %0, align 4, !tbaa !4
  %65 = icmp sgt i32 %64, 1
  br i1 %65, label %66, label %68, !prof !9

66:                                               ; preds = %63
  %67 = add nsw i32 %64, -1
  store i32 %67, ptr %0, align 4, !tbaa !4
  br label %lean_dec.exit

68:                                               ; preds = %63
  %.not.i31 = icmp eq i32 %64, 0
  br i1 %.not.i31, label %lean_dec.exit, label %69

69:                                               ; preds = %68
  tail call void @lean_dec_ref_cold(ptr noundef nonnull %0) #4
  br label %lean_dec.exit

70:                                               ; preds = %lean_inc.exit
  %71 = tail call ptr @l_Lake_Toml_pushLit(ptr noundef %0, ptr noundef %7, ptr noundef %2, ptr noundef %3, ptr noundef nonnull %24)
  br label %lean_dec.exit

lean_dec.exit:                                    ; preds = %lean_dec.exit22, %66, %68, %69, %70
  %.0 = phi ptr [ %71, %70 ], [ %24, %69 ], [ %24, %68 ], [ %24, %66 ], [ %24, %lean_dec.exit22 ]
  ret ptr %.0
}